target datalayout = "e-m:e-p270:32:32-p271:32:32-p272:64:64-i64:64-i128:128-f80:128-n8:16:32:64-S128"
target triple = "x86_64-pc-linux-gnu"

%struct._priv_exr_context_t = type { i8, i8, i8, i8, i8, i8, i8, i8, %struct.exr_attr_string_t, %struct.exr_attr_string_t, ptr, ptr, ptr, ptr, ptr, ptr, ptr, ptr, i32, i32, i32, i32, i32, float, ptr, ptr, ptr, i64, ptr, ptr, i64, i32, i32, i32, i32, %struct._priv_exr_part_t, ptr, ptr, %struct.exr_attribute_list, %union.pthread_mutex_t, i8, i8, [2 x i8], i32 }
%struct.exr_attr_string_t = type { i32, i32, ptr }
%struct._priv_exr_part_t = type { i32, i32, %struct.exr_attribute_list, ptr, ptr, ptr, ptr, ptr, ptr, ptr, ptr, ptr, ptr, ptr, ptr, ptr, ptr, %struct.exr_attr_box2i_t, %struct.exr_attr_box2i_t, i32, i32, i32, float, i32, i32, ptr, ptr, ptr, ptr, i64, i16, i16, i32, i64, i64 }
%struct.exr_attr_box2i_t = type { %struct.exr_attr_v2i_t, %struct.exr_attr_v2i_t }
%struct.exr_attr_v2i_t = type { i32, i32 }
%struct.exr_attribute_list = type { i32, i32, ptr, ptr }
%union.pthread_mutex_t = type { %struct.__pthread_mutex_s }
%struct.__pthread_mutex_s = type { i32, i32, i32, i32, i32, i16, i16, %struct.__pthread_internal_list }
%struct.__pthread_internal_list = type { ptr, ptr }
%struct.exr_attribute_t = type { ptr, ptr, i8, i8, [2 x i8], i32, %union.anon }
%union.anon = type { double }

@.str = private unnamed_addr constant [29 x i8] c"Part index (%d) out of range\00", align 1
@.str.10 = private unnamed_addr constant [10 x i8] c"lineOrder\00", align 1
@.str.42 = private unnamed_addr constant [61 x i8] c"'%s' requested type 'uc', but stored attributes is type '%s'\00", align 1
@.str.60 = private unnamed_addr constant [59 x i8] c"'%s' value for line order enum (%d) out of range (%d - %d)\00", align 1

; Function Attrs: inlinehint nounwind uwtable
define internal void @internal_exr_unlock(ptr noundef %0) #2 {
  %2 = alloca ptr, align 8
  %3 = alloca ptr, align 8
  store ptr %0, ptr %2, align 8, !tbaa !3
  call void @llvm.lifetime.start.p0(i64 8, ptr %3) #8
  %4 = load ptr, ptr %2, align 8, !tbaa !3
  %5 = ptrtoint ptr %4 to i64
  %6 = inttoptr i64 %5 to ptr
  store ptr %6, ptr %3, align 8, !tbaa !3
  %7 = load ptr, ptr %3, align 8, !tbaa !3
  %8 = getelementptr inbounds nuw %struct._priv_exr_context_t, ptr %7, i32 0, i32 39
  %9 = call i32 @pthread_mutex_unlock(ptr noundef %8) #8
  call void @llvm.lifetime.end.p0(i64 8, ptr %3) #8
  ret void
}

; Function Attrs: inlinehint nounwind uwtable
define internal void @internal_exr_lock(ptr noundef %0) #2 {
  %2 = alloca ptr, align 8
  %3 = alloca ptr, align 8
  store ptr %0, ptr %2, align 8, !tbaa !3
  call void @llvm.lifetime.start.p0(i64 8, ptr %3) #8
  %4 = load ptr, ptr %2, align 8, !tbaa !3
  %5 = ptrtoint ptr %4 to i64
  %6 = inttoptr i64 %5 to ptr
  store ptr %6, ptr %3, align 8, !tbaa !3
  %7 = load ptr, ptr %3, align 8, !tbaa !3
  %8 = getelementptr inbounds nuw %struct._priv_exr_context_t, ptr %7, i32 0, i32 39
  %9 = call i32 @pthread_mutex_lock(ptr noundef %8) #8
  call void @llvm.lifetime.end.p0(i64 8, ptr %3) #8
  ret void
}

; Function Attrs: nounwind uwtable
define i32 @exr_attr_set_lineorder(ptr noundef %0, i32 noundef %1, ptr noundef %2, i32 noundef %3) #0 {
  %5 = alloca i32, align 4
  %6 = alloca ptr, align 8
  %7 = alloca i32, align 4
  %8 = alloca ptr, align 8
  %9 = alloca i32, align 4
  %10 = alloca i8, align 1
  %11 = alloca i32, align 4
  %12 = alloca ptr, align 8
  %13 = alloca i32, align 4
  %14 = alloca ptr, align 8
  store ptr %0, ptr %6, align 8, !tbaa !3
  store i32 %1, ptr %7, align 4, !tbaa !8
  store ptr %2, ptr %8, align 8, !tbaa !36
  store i32 %3, ptr %9, align 4, !tbaa !8
  call void @llvm.lifetime.start.p0(i64 1, ptr %10) #8
  %15 = load i32, ptr %9, align 4, !tbaa !8
  %16 = trunc i32 %15 to i8
  store i8 %16, ptr %10, align 1, !tbaa !42
  %17 = load i32, ptr %9, align 4, !tbaa !8
  %18 = icmp uge i32 %17, 3
  br i1 %18, label %19, label %27

19:                                               ; preds = %4
  %20 = load ptr, ptr %6, align 8, !tbaa !3
  %21 = getelementptr inbounds nuw %struct._priv_exr_context_t, ptr %20, i32 0, i32 14
  %22 = load ptr, ptr %21, align 8, !tbaa !27
  %23 = load ptr, ptr %6, align 8, !tbaa !3
  %24 = load ptr, ptr %8, align 8, !tbaa !36
  %25 = load i32, ptr %9, align 4, !tbaa !8
  %26 = call i32 (ptr, i32, ptr, ...) %22(ptr noundef %23, i32 noundef 4, ptr noundef @.str.60, ptr noundef %24, i32 noundef %25, i32 noundef 0, i32 noundef 3)
  store i32 %26, ptr %5, align 4
  store i32 1, ptr %11, align 4
  br label %159

27:                                               ; preds = %4
  %28 = load ptr, ptr %8, align 8, !tbaa !36
  %29 = icmp ne ptr %28, null
  br i1 %29, label %30, label %40

30:                                               ; preds = %27
  %31 = load ptr, ptr %8, align 8, !tbaa !36
  %32 = call i32 @strcmp(ptr noundef %31, ptr noundef @.str.10) #9
  %33 = icmp eq i32 0, %32
  br i1 %33, label %34, label %40

34:                                               ; preds = %30
  %35 = load ptr, ptr %6, align 8, !tbaa !3
  %36 = load i32, ptr %7, align 4, !tbaa !8
  %37 = load i8, ptr %10, align 1, !tbaa !42
  %38 = zext i8 %37 to i32
  %39 = call i32 @exr_set_lineorder(ptr noundef %35, i32 noundef %36, i32 noundef %38)
  store i32 %39, ptr %5, align 4
  store i32 1, ptr %11, align 4
  br label %159

40:                                               ; preds = %30, %27
  call void @llvm.lifetime.start.p0(i64 8, ptr %12) #8
  store ptr null, ptr %12, align 8, !tbaa !35
  call void @llvm.lifetime.start.p0(i64 4, ptr %13) #8
  store i32 0, ptr %13, align 4, !tbaa !8
  call void @llvm.lifetime.start.p0(i64 8, ptr %14) #8
  %41 = load ptr, ptr %6, align 8, !tbaa !3
  %42 = icmp ne ptr %41, null
  br i1 %42, label %44, label %43

43:                                               ; preds = %40
  store i32 2, ptr %5, align 4
  store i32 1, ptr %11, align 4
  br label %158

44:                                               ; preds = %40
  %45 = load ptr, ptr %6, align 8, !tbaa !3
  call void @internal_exr_lock(ptr noundef %45)
  %46 = load i32, ptr %7, align 4, !tbaa !8
  %47 = icmp slt i32 %46, 0
  br i1 %47, label %54, label %48

48:                                               ; preds = %44
  %49 = load i32, ptr %7, align 4, !tbaa !8
  %50 = load ptr, ptr %6, align 8, !tbaa !3
  %51 = getelementptr inbounds nuw %struct._priv_exr_context_t, ptr %50, i32 0, i32 34
  %52 = load i32, ptr %51, align 4, !tbaa !26
  %53 = icmp sge i32 %49, %52
  br i1 %53, label %54, label %62

54:                                               ; preds = %48, %44
  %55 = load ptr, ptr %6, align 8, !tbaa !3
  call void @internal_exr_unlock(ptr noundef %55)
  %56 = load ptr, ptr %6, align 8, !tbaa !3
  %57 = getelementptr inbounds nuw %struct._priv_exr_context_t, ptr %56, i32 0, i32 14
  %58 = load ptr, ptr %57, align 8, !tbaa !27
  %59 = load ptr, ptr %6, align 8, !tbaa !3
  %60 = load i32, ptr %7, align 4, !tbaa !8
  %61 = call i32 (ptr, i32, ptr, ...) %58(ptr noundef %59, i32 noundef 4, ptr noundef @.str, i32 noundef %60)
  store i32 %61, ptr %5, align 4
  store i32 1, ptr %11, align 4
  br label %158

62:                                               ; preds = %48
  %63 = load ptr, ptr %6, align 8, !tbaa !3
  %64 = getelementptr inbounds nuw %struct._priv_exr_context_t, ptr %63, i32 0, i32 37
  %65 = load ptr, ptr %64, align 8, !tbaa !28
  %66 = load i32, ptr %7, align 4, !tbaa !8
  %67 = sext i32 %66 to i64
  %68 = getelementptr inbounds ptr, ptr %65, i64 %67
  %69 = load ptr, ptr %68, align 8, !tbaa !29
  store ptr %69, ptr %14, align 8, !tbaa !29
  %70 = load ptr, ptr %6, align 8, !tbaa !3
  %71 = getelementptr inbounds nuw %struct._priv_exr_context_t, ptr %70, i32 0, i32 0
  %72 = load i8, ptr %71, align 8, !tbaa !12
  %73 = zext i8 %72 to i32
  %74 = icmp eq i32 %73, 0
  br i1 %74, label %75, label %82

75:                                               ; preds = %62
  %76 = load ptr, ptr %6, align 8, !tbaa !3
  call void @internal_exr_unlock(ptr noundef %76)
  %77 = load ptr, ptr %6, align 8, !tbaa !3
  %78 = getelementptr inbounds nuw %struct._priv_exr_context_t, ptr %77, i32 0, i32 12
  %79 = load ptr, ptr %78, align 8, !tbaa !31
  %80 = load ptr, ptr %6, align 8, !tbaa !3
  %81 = call i32 %79(ptr noundef %80, i32 noundef 8)
  store i32 %81, ptr %5, align 4
  store i32 1, ptr %11, align 4
  br label %158

82:                                               ; preds = %62
  %83 = load ptr, ptr %6, align 8, !tbaa !3
  %84 = getelementptr inbounds nuw %struct._priv_exr_context_t, ptr %83, i32 0, i32 0
  %85 = load i8, ptr %84, align 8, !tbaa !12
  %86 = zext i8 %85 to i32
  %87 = icmp eq i32 %86, 3
  br i1 %87, label %88, label %95

88:                                               ; preds = %82
  %89 = load ptr, ptr %6, align 8, !tbaa !3
  call void @internal_exr_unlock(ptr noundef %89)
  %90 = load ptr, ptr %6, align 8, !tbaa !3
  %91 = getelementptr inbounds nuw %struct._priv_exr_context_t, ptr %90, i32 0, i32 12
  %92 = load ptr, ptr %91, align 8, !tbaa !31
  %93 = load ptr, ptr %6, align 8, !tbaa !3
  %94 = call i32 %92(ptr noundef %93, i32 noundef 21)
  store i32 %94, ptr %5, align 4
  store i32 1, ptr %11, align 4
  br label %158

95:                                               ; preds = %82
  %96 = load ptr, ptr %6, align 8, !tbaa !3
  %97 = load ptr, ptr %14, align 8, !tbaa !29
  %98 = getelementptr inbounds nuw %struct._priv_exr_part_t, ptr %97, i32 0, i32 2
  %99 = load ptr, ptr %8, align 8, !tbaa !36
  %100 = call i32 @exr_attr_list_find_by_name(ptr noundef %96, ptr noundef %98, ptr noundef %99, ptr noundef %12)
  store i32 %100, ptr %13, align 4, !tbaa !8
  %101 = load i32, ptr %13, align 4, !tbaa !8
  %102 = icmp eq i32 %101, 15
  br i1 %102, label %103, label %124

103:                                              ; preds = %95
  %104 = load ptr, ptr %6, align 8, !tbaa !3
  %105 = getelementptr inbounds nuw %struct._priv_exr_context_t, ptr %104, i32 0, i32 0
  %106 = load i8, ptr %105, align 8, !tbaa !12
  %107 = zext i8 %106 to i32
  %108 = icmp ne i32 %107, 1
  br i1 %108, label %109, label %118

109:                                              ; preds = %103
  %110 = load ptr, ptr %6, align 8, !tbaa !3
  %111 = getelementptr inbounds nuw %struct._priv_exr_context_t, ptr %110, i32 0, i32 0
  %112 = load i8, ptr %111, align 8, !tbaa !12
  %113 = zext i8 %112 to i32
  %114 = icmp ne i32 %113, 4
  br i1 %114, label %115, label %118

115:                                              ; preds = %109
  %116 = load ptr, ptr %6, align 8, !tbaa !3
  call void @internal_exr_unlock(ptr noundef %116)
  %117 = load i32, ptr %13, align 4, !tbaa !8
  store i32 %117, ptr %5, align 4
  store i32 1, ptr %11, align 4
  br label %158

118:                                              ; preds = %109, %103
  %119 = load ptr, ptr %6, align 8, !tbaa !3
  %120 = load ptr, ptr %14, align 8, !tbaa !29
  %121 = getelementptr inbounds nuw %struct._priv_exr_part_t, ptr %120, i32 0, i32 2
  %122 = load ptr, ptr %8, align 8, !tbaa !36
  %123 = call i32 @exr_attr_list_add(ptr noundef %119, ptr noundef %121, ptr noundef %122, i32 noundef 12, i32 noundef 0, ptr noundef null, ptr noundef %12)
  store i32 %123, ptr %13, align 4, !tbaa !8
  br label %148

124:                                              ; preds = %95
  %125 = load i32, ptr %13, align 4, !tbaa !8
  %126 = icmp eq i32 %125, 0
  br i1 %126, label %127, label %144

127:                                              ; preds = %124
  %128 = load ptr, ptr %12, align 8, !tbaa !35
  %129 = getelementptr inbounds nuw %struct.exr_attribute_t, ptr %128, i32 0, i32 5
  %130 = load i32, ptr %129, align 4, !tbaa !39
  %131 = icmp ne i32 %130, 12
  br i1 %131, label %132, label %143

132:                                              ; preds = %127
  %133 = load ptr, ptr %6, align 8, !tbaa !3
  call void @internal_exr_unlock(ptr noundef %133)
  %134 = load ptr, ptr %6, align 8, !tbaa !3
  %135 = getelementptr inbounds nuw %struct._priv_exr_context_t, ptr %134, i32 0, i32 14
  %136 = load ptr, ptr %135, align 8, !tbaa !27
  %137 = load ptr, ptr %6, align 8, !tbaa !3
  %138 = load ptr, ptr %8, align 8, !tbaa !36
  %139 = load ptr, ptr %12, align 8, !tbaa !35
  %140 = getelementptr inbounds nuw %struct.exr_attribute_t, ptr %139, i32 0, i32 1
  %141 = load ptr, ptr %140, align 8, !tbaa !41
  %142 = call i32 (ptr, i32, ptr, ...) %136(ptr noundef %137, i32 noundef 16, ptr noundef @.str.42, ptr noundef %138, ptr noundef %141)
  store i32 %142, ptr %5, align 4
  store i32 1, ptr %11, align 4
  br label %158

143:                                              ; preds = %127
  br label %147

144:                                              ; preds = %124
  %145 = load ptr, ptr %6, align 8, !tbaa !3
  call void @internal_exr_unlock(ptr noundef %145)
  %146 = load i32, ptr %13, align 4, !tbaa !8
  store i32 %146, ptr %5, align 4
  store i32 1, ptr %11, align 4
  br label %158

147:                                              ; preds = %143
  br label %148

148:                                              ; preds = %147, %118
  %149 = load i32, ptr %13, align 4, !tbaa !8
  %150 = icmp eq i32 %149, 0
  br i1 %150, label %151, label %155

151:                                              ; preds = %148
  %152 = load i8, ptr %10, align 1, !tbaa !42
  %153 = load ptr, ptr %12, align 8, !tbaa !35
  %154 = getelementptr inbounds nuw %struct.exr_attribute_t, ptr %153, i32 0, i32 6
  store i8 %152, ptr %154, align 8, !tbaa !42
  br label %155

155:                                              ; preds = %151, %148
  %156 = load ptr, ptr %6, align 8, !tbaa !3
  call void @internal_exr_unlock(ptr noundef %156)
  %157 = load i32, ptr %13, align 4, !tbaa !8
  store i32 %157, ptr %5, align 4
  store i32 1, ptr %11, align 4
  br label %158

158:                                              ; preds = %155, %144, %132, %115, %88, %75, %54, %43
  call void @llvm.lifetime.end.p0(i64 8, ptr %14) #8
  call void @llvm.lifetime.end.p0(i64 4, ptr %13) #8
  call void @llvm.lifetime.end.p0(i64 8, ptr %12) #8
  br label %159

159:                                              ; preds = %158, %34, %19
  call void @llvm.lifetime.end.p0(i64 1, ptr %10) #8
  %160 = load i32, ptr %5, align 4
  ret i32 %160
}