; Function Attrs: nounwind uwtable
define i32 @exr_attr_set_lineorder(ptr noundef %0, i32 noundef %1, ptr noundef %2, i32 noundef %3) local_unnamed_addr #0 {
  %5 = alloca ptr, align 8
  %6 = trunc i32 %3 to i8
  %7 = icmp ugt i32 %3, 2
  br i1 %7, label %8, label %12

8:                                                ; preds = %4
  %9 = getelementptr inbounds nuw i8, ptr %0, i64 72
  %10 = load ptr, ptr %9, align 8, !tbaa !23
  %11 = tail call i32 (ptr, i32, ptr, ...) %10(ptr noundef %0, i32 noundef 4, ptr noundef nonnull @.str.60, ptr noundef %2, i32 noundef %3, i32 noundef 0, i32 noundef 3) #6
  br label %77

12:                                               ; preds = %4
  %.not = icmp eq ptr %2, null
  br i1 %.not, label %18, label %13

13:                                               ; preds = %12
  %14 = tail call i32 @strcmp(ptr noundef nonnull dereferenceable(1) %2, ptr noundef nonnull dereferenceable(10) @.str.10) #7
  %15 = icmp eq i32 %14, 0
  br i1 %15, label %16, label %18

16:                                               ; preds = %13
  %17 = tail call i32 @exr_set_lineorder(ptr noundef %0, i32 noundef %1, i32 noundef %3)
  br label %77

18:                                               ; preds = %13, %12
  call void @llvm.lifetime.start.p0(i64 8, ptr nonnull %5) #6
  store ptr null, ptr %5, align 8, !tbaa !30
  %.not61 = icmp eq ptr %0, null
  br i1 %.not61, label %76, label %19

19:                                               ; preds = %18
  %20 = getelementptr inbounds nuw i8, ptr %0, i64 504
  %21 = tail call i32 @pthread_mutex_lock(ptr noundef nonnull %20) #6
  %22 = icmp slt i32 %1, 0
  br i1 %22, label %26, label %23

23:                                               ; preds = %19
  %24 = getelementptr inbounds nuw i8, ptr %0, i64 196
  %25 = load i32, ptr %24, align 4, !tbaa !22
  %.not62 = icmp slt i32 %1, %25
  br i1 %.not62, label %31, label %26

26:                                               ; preds = %23, %19
  %27 = tail call i32 @pthread_mutex_unlock(ptr noundef nonnull %20) #6
  %28 = getelementptr inbounds nuw i8, ptr %0, i64 72
  %29 = load ptr, ptr %28, align 8, !tbaa !23
  %30 = tail call i32 (ptr, i32, ptr, ...) %29(ptr noundef nonnull %0, i32 noundef 4, ptr noundef nonnull @.str, i32 noundef %1) #6
  br label %76

31:                                               ; preds = %23
  %32 = load i8, ptr %0, align 8, !tbaa !3
  switch i8 %32, label %43 [
    i8 0, label %33
    i8 3, label %38
  ]

33:                                               ; preds = %31
  %34 = tail call i32 @pthread_mutex_unlock(ptr noundef nonnull %20) #6
  %35 = getelementptr inbounds nuw i8, ptr %0, i64 56
  %36 = load ptr, ptr %35, align 8, !tbaa !27
  %37 = tail call i32 %36(ptr noundef nonnull %0, i32 noundef 8) #6
  br label %76

38:                                               ; preds = %31
  %39 = tail call i32 @pthread_mutex_unlock(ptr noundef nonnull %20) #6
  %40 = getelementptr inbounds nuw i8, ptr %0, i64 56
  %41 = load ptr, ptr %40, align 8, !tbaa !27
  %42 = tail call i32 %41(ptr noundef nonnull %0, i32 noundef 21) #6
  br label %76

43:                                               ; preds = %31
  %44 = getelementptr inbounds nuw i8, ptr %0, i64 472
  %45 = load ptr, ptr %44, align 8, !tbaa !24
  %46 = zext nneg i32 %1 to i64
  %47 = getelementptr inbounds nuw ptr, ptr %45, i64 %46
  %48 = load ptr, ptr %47, align 8, !tbaa !25
  %49 = getelementptr inbounds nuw i8, ptr %48, i64 8
  %50 = call i32 @exr_attr_list_find_by_name(ptr noundef nonnull %0, ptr noundef nonnull %49, ptr noundef %2, ptr noundef nonnull %5) #6
  switch i32 %50, label %67 [
    i32 15, label %51
    i32 0, label %55
  ]

51:                                               ; preds = %43
  %52 = load i8, ptr %0, align 8, !tbaa !3
  switch i8 %52, label %53 [
    i8 1, label %69
    i8 4, label %69
  ]

53:                                               ; preds = %51
  %54 = call i32 @pthread_mutex_unlock(ptr noundef nonnull %20) #6
  br label %76

55:                                               ; preds = %43
  %56 = load ptr, ptr %5, align 8, !tbaa !30
  %57 = getelementptr inbounds nuw i8, ptr %56, i64 20
  %58 = load i32, ptr %57, align 4, !tbaa !32
  %.not63 = icmp eq i32 %58, 12
  br i1 %.not63, label %.thread, label %59

59:                                               ; preds = %55
  %60 = call i32 @pthread_mutex_unlock(ptr noundef nonnull %20) #6
  %61 = getelementptr inbounds nuw i8, ptr %0, i64 72
  %62 = load ptr, ptr %61, align 8, !tbaa !23
  %63 = load ptr, ptr %5, align 8, !tbaa !30
  %64 = getelementptr inbounds nuw i8, ptr %63, i64 8
  %65 = load ptr, ptr %64, align 8, !tbaa !34
  %66 = call i32 (ptr, i32, ptr, ...) %62(ptr noundef nonnull %0, i32 noundef 16, ptr noundef nonnull @.str.42, ptr noundef %2, ptr noundef %65) #6
  br label %76

67:                                               ; preds = %43
  %68 = call i32 @pthread_mutex_unlock(ptr noundef nonnull %20) #6
  br label %76

69:                                               ; preds = %51, %51
  %70 = call i32 @exr_attr_list_add(ptr noundef nonnull %0, ptr noundef nonnull %49, ptr noundef %2, i32 noundef 12, i32 noundef 0, ptr noundef null, ptr noundef nonnull %5) #6
  %71 = icmp eq i32 %70, 0
  br i1 %71, label %..thread_crit_edge, label %74

..thread_crit_edge:                               ; preds = %69
  %.pre = load ptr, ptr %5, align 8, !tbaa !30
  br label %.thread

.thread:                                          ; preds = %..thread_crit_edge, %55
  %72 = phi ptr [ %.pre, %..thread_crit_edge ], [ %56, %55 ]
  %73 = getelementptr inbounds nuw i8, ptr %72, i64 24
  store i8 %6, ptr %73, align 8, !tbaa !35
  br label %74

74:                                               ; preds = %.thread, %69
  %.05267 = phi i32 [ 0, %.thread ], [ %70, %69 ]
  %75 = call i32 @pthread_mutex_unlock(ptr noundef nonnull %20) #6
  br label %76

76:                                               ; preds = %18, %74, %67, %59, %53, %38, %33, %26
  %.1 = phi i32 [ %30, %26 ], [ %37, %33 ], [ %42, %38 ], [ 15, %53 ], [ %.05267, %74 ], [ %66, %59 ], [ %50, %67 ], [ 2, %18 ]
  call void @llvm.lifetime.end.p0(i64 8, ptr nonnull %5) #6
  br label %77

77:                                               ; preds = %76, %16, %8
  %.0 = phi i32 [ %11, %8 ], [ %17, %16 ], [ %.1, %76 ]
  ret i32 %.0
}